target datalayout = "e-m:e-p270:32:32-p271:32:32-p272:64:64-i64:64-i128:128-f80:128-n8:16:32:64-S128"
target triple = "x86_64-pc-linux-gnu"

%struct.QueryOperator = type { i8, i8, i16, i32 }
%struct.QueryOperand = type { i8, i8, i8, i32, i32 }
%union.QueryItem = type { %struct.QueryOperand }

@.str.1 = private unnamed_addr constant [10 x i8] c"tsquery.c\00", align 1
@.str.21 = private unnamed_addr constant [37 x i8] c"malformed tsquery: operand not found\00", align 1
@__func__.findoprnd_recurse = private unnamed_addr constant [18 x i8] c"findoprnd_recurse\00", align 1

; Function Attrs: nounwind uwtable
define internal void @findoprnd_recurse(ptr noundef %0, ptr noundef %1, i32 noundef %2, ptr noundef %3) #0 {
  %5 = alloca ptr, align 8
  %6 = alloca ptr, align 8
  %7 = alloca i32, align 4
  %8 = alloca ptr, align 8
  %9 = alloca ptr, align 8
  %10 = alloca i32, align 4
  store ptr %0, ptr %5, align 8
  store ptr %1, ptr %6, align 8
  store i32 %2, ptr %7, align 4
  store ptr %3, ptr %8, align 8
  call void @check_stack_depth()
  %11 = load ptr, ptr %6, align 8
  %12 = load i32, ptr %11, align 4
  %13 = load i32, ptr %7, align 4
  %14 = icmp uge i32 %12, %13
  br i1 %14, label %15, label %25

15:                                               ; preds = %4
  br label %16

16:                                               ; preds = %15
  br i1 true, label %17, label %19

17:                                               ; preds = %16
  %18 = call zeroext i1 @errstart_cold(i32 noundef 21, ptr noundef null) #12
  br i1 %18, label %21, label %23

19:                                               ; preds = %16
  %20 = call zeroext i1 @errstart(i32 noundef 21, ptr noundef null)
  br i1 %20, label %21, label %23

21:                                               ; preds = %19, %17
  %22 = call i32 (ptr, ...) @errmsg_internal(ptr noundef @.str.21)
  call void @errfinish(ptr noundef @.str.1, i32 noundef 732, ptr noundef @__func__.findoprnd_recurse)
  br label %23

23:                                               ; preds = %21, %19, %17
  unreachable

24:                                               ; No predecessors!
  br label %25

25:                                               ; preds = %24, %4
  %26 = load ptr, ptr %5, align 8
  %27 = load ptr, ptr %6, align 8
  %28 = load i32, ptr %27, align 4
  %29 = zext i32 %28 to i64
  %30 = getelementptr inbounds nuw %union.QueryItem, ptr %26, i64 %29
  %31 = load i8, ptr %30, align 4
  %32 = sext i8 %31 to i32
  %33 = icmp eq i32 %32, 1
  br i1 %33, label %34, label %38

34:                                               ; preds = %25
  %35 = load ptr, ptr %6, align 8
  %36 = load i32, ptr %35, align 4
  %37 = add i32 %36, 1
  store i32 %37, ptr %35, align 4
  br label %103

38:                                               ; preds = %25
  %39 = load ptr, ptr %5, align 8
  %40 = load ptr, ptr %6, align 8
  %41 = load i32, ptr %40, align 4
  %42 = zext i32 %41 to i64
  %43 = getelementptr inbounds nuw %union.QueryItem, ptr %39, i64 %42
  %44 = load i8, ptr %43, align 4
  %45 = sext i8 %44 to i32
  %46 = icmp eq i32 %45, 3
  br i1 %46, label %47, label %52

47:                                               ; preds = %38
  %48 = load ptr, ptr %8, align 8
  store i8 1, ptr %48, align 1
  %49 = load ptr, ptr %6, align 8
  %50 = load i32, ptr %49, align 4
  %51 = add i32 %50, 1
  store i32 %51, ptr %49, align 4
  br label %102

52:                                               ; preds = %38
  %53 = load ptr, ptr %5, align 8
  %54 = load ptr, ptr %6, align 8
  %55 = load i32, ptr %54, align 4
  %56 = zext i32 %55 to i64
  %57 = getelementptr inbounds nuw %union.QueryItem, ptr %53, i64 %56
  %58 = getelementptr inbounds nuw %struct.QueryOperator, ptr %57, i32 0, i32 1
  %59 = load i8, ptr %58, align 1
  %60 = sext i8 %59 to i32
  %61 = icmp eq i32 %60, 1
  br i1 %61, label %62, label %76

62:                                               ; preds = %52
  %63 = load ptr, ptr %5, align 8
  %64 = load ptr, ptr %6, align 8
  %65 = load i32, ptr %64, align 4
  %66 = zext i32 %65 to i64
  %67 = getelementptr inbounds nuw %union.QueryItem, ptr %63, i64 %66
  %68 = getelementptr inbounds nuw %struct.QueryOperator, ptr %67, i32 0, i32 3
  store i32 1, ptr %68, align 4
  %69 = load ptr, ptr %6, align 8
  %70 = load i32, ptr %69, align 4
  %71 = add i32 %70, 1
  store i32 %71, ptr %69, align 4
  %72 = load ptr, ptr %5, align 8
  %73 = load ptr, ptr %6, align 8
  %74 = load i32, ptr %7, align 4
  %75 = load ptr, ptr %8, align 8
  call void @findoprnd_recurse(ptr noundef %72, ptr noundef %73, i32 noundef %74, ptr noundef %75)
  br label %101

76:                                               ; preds = %52
  call void @llvm.lifetime.start.p0(i64 8, ptr %9) #11
  %77 = load ptr, ptr %5, align 8
  %78 = load ptr, ptr %6, align 8
  %79 = load i32, ptr %78, align 4
  %80 = zext i32 %79 to i64
  %81 = getelementptr inbounds nuw %union.QueryItem, ptr %77, i64 %80
  store ptr %81, ptr %9, align 8
  call void @llvm.lifetime.start.p0(i64 4, ptr %10) #11
  %82 = load ptr, ptr %6, align 8
  %83 = load i32, ptr %82, align 4
  store i32 %83, ptr %10, align 4
  %84 = load ptr, ptr %6, align 8
  %85 = load i32, ptr %84, align 4
  %86 = add i32 %85, 1
  store i32 %86, ptr %84, align 4
  %87 = load ptr, ptr %5, align 8
  %88 = load ptr, ptr %6, align 8
  %89 = load i32, ptr %7, align 4
  %90 = load ptr, ptr %8, align 8
  call void @findoprnd_recurse(ptr noundef %87, ptr noundef %88, i32 noundef %89, ptr noundef %90)
  %91 = load ptr, ptr %6, align 8
  %92 = load i32, ptr %91, align 4
  %93 = load i32, ptr %10, align 4
  %94 = sub i32 %92, %93
  %95 = load ptr, ptr %9, align 8
  %96 = getelementptr inbounds nuw %struct.QueryOperator, ptr %95, i32 0, i32 3
  store i32 %94, ptr %96, align 4
  %97 = load ptr, ptr %5, align 8
  %98 = load ptr, ptr %6, align 8
  %99 = load i32, ptr %7, align 4
  %100 = load ptr, ptr %8, align 8
  call void @findoprnd_recurse(ptr noundef %97, ptr noundef %98, i32 noundef %99, ptr noundef %100)
  call void @llvm.lifetime.end.p0(i64 4, ptr %10) #11
  call void @llvm.lifetime.end.p0(i64 8, ptr %9) #11
  br label %101

101:                                              ; preds = %76, %62
  br label %102

102:                                              ; preds = %101, %47
  br label %103

103:                                              ; preds = %102, %34
  ret void
}