; Function Attrs: nounwind uwtable
define internal fastcc void @findoprnd_recurse(ptr noundef captures(none) %0, ptr noundef nonnull captures(none) %1, i32 noundef %2, ptr noundef nonnull writeonly captures(none) %3) unnamed_addr #0 {
  tail call void @check_stack_depth() #12
  %5 = load i32, ptr %1, align 4
  %.not39 = icmp ult i32 %5, %2
  br i1 %.not39, label %.lr.ph, label %tailrecurse._crit_edge

tailrecurse._crit_edge:                           ; preds = %tailrecurse.backedge, %4
  %6 = tail call zeroext i1 @errstart_cold(i32 noundef 21, ptr noundef null) #13
  tail call void @llvm.assume(i1 %6)
  %7 = tail call i32 (ptr, ...) @errmsg_internal(ptr noundef nonnull @.str.21) #12
  tail call void @errfinish(ptr noundef nonnull @.str.1, i32 noundef 732, ptr noundef nonnull @__func__.findoprnd_recurse) #12
  unreachable

.lr.ph:                                           ; preds = %4, %tailrecurse.backedge
  %8 = phi i32 [ %22, %tailrecurse.backedge ], [ %5, %4 ]
  %9 = zext i32 %8 to i64
  %10 = getelementptr inbounds nuw %union.QueryItem, ptr %0, i64 %9
  %11 = load i8, ptr %10, align 4
  switch i8 %11, label %14 [
    i8 1, label %.loopexit
    i8 3, label %12
  ]

12:                                               ; preds = %.lr.ph
  store i8 1, ptr %3, align 1
  %13 = load i32, ptr %1, align 4
  br label %.loopexit

14:                                               ; preds = %.lr.ph
  %15 = getelementptr inbounds nuw i8, ptr %10, i64 1
  %16 = load i8, ptr %15, align 1
  %17 = icmp eq i8 %16, 1
  br i1 %17, label %18, label %23

18:                                               ; preds = %14
  %19 = getelementptr inbounds nuw i8, ptr %10, i64 4
  store i32 1, ptr %19, align 4
  %20 = load i32, ptr %1, align 4
  %21 = add i32 %20, 1
  store i32 %21, ptr %1, align 4
  br label %tailrecurse.backedge

tailrecurse.backedge:                             ; preds = %18, %23
  tail call void @check_stack_depth() #12
  %22 = load i32, ptr %1, align 4
  %.not = icmp ult i32 %22, %2
  br i1 %.not, label %.lr.ph, label %tailrecurse._crit_edge

23:                                               ; preds = %14
  %24 = add nuw i32 %8, 1
  store i32 %24, ptr %1, align 4
  tail call fastcc void @findoprnd_recurse(ptr noundef nonnull %0, ptr noundef %1, i32 noundef %2, ptr noundef %3)
  %25 = load i32, ptr %1, align 4
  %26 = sub i32 %25, %8
  %27 = getelementptr inbounds nuw i8, ptr %10, i64 4
  store i32 %26, ptr %27, align 4
  br label %tailrecurse.backedge

.loopexit:                                        ; preds = %.lr.ph, %12
  %storemerge.in = phi i32 [ %13, %12 ], [ %8, %.lr.ph ]
  %storemerge = add i32 %storemerge.in, 1
  store i32 %storemerge, ptr %1, align 4
  ret void
}